; Function Attrs: mustprogress uwtable
define dso_local void @_ZN4onnx9NodeProto9MergeFromERKN6google8protobuf7MessageE(ptr noundef nonnull align 8 dereferenceable(128) %0, ptr noundef nonnull align 8 dereferenceable(16) %1) unnamed_addr #3 align 2 personality ptr @__gxx_personality_v0 {
  %3 = load ptr, ptr %1, align 8, !tbaa !9
  %4 = icmp eq ptr %3, getelementptr inbounds nuw inrange(-16, 160) (i8, ptr @_ZTVN4onnx9NodeProtoE, i64 16)
  br i1 %4, label %_ZN6google8protobuf22DynamicCastToGeneratedIN4onnx9NodeProtoEEEPKT_PKNS0_7MessageE.exit, label %5

5:                                                ; preds = %2
  tail call void @_ZN6google8protobuf8internal13ReflectionOps5MergeERKNS0_7MessageEPS3_(ptr noundef nonnull align 8 dereferenceable(16) %1, ptr noundef nonnull %0)
  br label %6

_ZN6google8protobuf22DynamicCastToGeneratedIN4onnx9NodeProtoEEEPKT_PKNS0_7MessageE.exit: ; preds = %2
  tail call void @_ZN4onnx9NodeProto9MergeFromERKS0_(ptr noundef nonnull align 8 dereferenceable(128) %0, ptr noundef nonnull align 8 dereferenceable(128) %1)
  br label %6

6:                                                ; preds = %_ZN6google8protobuf22DynamicCastToGeneratedIN4onnx9NodeProtoEEEPKT_PKNS0_7MessageE.exit, %5
  ret void
}